target datalayout = "e-m:e-p270:32:32-p271:32:32-p272:64:64-i64:64-i128:128-f80:128-n8:16:32:64-S128"
target triple = "x86_64-pc-linux-gnu"

%"struct.cv::UMatData" = type { ptr, ptr, i32, i32, ptr, ptr, i64, i32, ptr, ptr, i32, i32, ptr, %"class.std::shared_ptr" }
%"class.std::shared_ptr" = type { %"class.std::__shared_ptr" }
%"class.std::__shared_ptr" = type { ptr, %"class.std::__shared_count" }
%"class.std::__shared_count" = type { ptr }
%"class.cv::UMat" = type { i32, i32, i32, i32, ptr, i32, ptr, i64, %"struct.cv::MatSize", %"struct.cv::MatStep" }
%"struct.cv::MatSize" = type { ptr }
%"struct.cv::MatStep" = type { ptr, [2 x i64] }

; Function Attrs: mustprogress nounwind uwtable
define void @_ZN2cv4UMat6addrefEv(ptr noundef nonnull align 8 dereferenceable(80) %0) #0 align 2 {
  %2 = alloca ptr, align 8
  %3 = alloca i32, align 4
  %4 = alloca i32, align 4
  store ptr %0, ptr %2, align 8, !tbaa !65
  %5 = load ptr, ptr %2, align 8
  %6 = getelementptr inbounds nuw %"class.cv::UMat", ptr %5, i32 0, i32 6
  %7 = load ptr, ptr %6, align 8, !tbaa !80
  %8 = icmp ne ptr %7, null
  br i1 %8, label %9, label %15

9:                                                ; preds = %1
  %10 = getelementptr inbounds nuw %"class.cv::UMat", ptr %5, i32 0, i32 6
  %11 = load ptr, ptr %10, align 8, !tbaa !80
  %12 = getelementptr inbounds nuw %"struct.cv::UMatData", ptr %11, i32 0, i32 2
  store i32 1, ptr %3, align 4, !tbaa !37
  %13 = load i32, ptr %3, align 4
  %14 = atomicrmw add ptr %12, i32 %13 acq_rel, align 8
  store i32 %14, ptr %4, align 4
  br label %15

15:                                               ; preds = %9, %1
  ret void
}